; Function Attrs: nounwind uwtable
define dso_local void @logicalrep_write_stream_commit(ptr noundef %0, ptr noundef readonly captures(none) %1, i64 noundef %2) local_unnamed_addr #0 {
  tail call void @enlargeStringInfo(ptr noundef %0, i32 noundef 1) #8
  tail call void @llvm.experimental.noalias.scope.decl(metadata !249)
  %4 = load ptr, ptr %0, align 8, !alias.scope !249
  %5 = getelementptr inbounds nuw i8, ptr %0, i64 8
  %6 = load i32, ptr %5, align 8, !alias.scope !249
  %7 = sext i32 %6 to i64
  %8 = getelementptr inbounds i8, ptr %4, i64 %7
  store i8 99, ptr %8, align 1, !noalias !249
  %9 = add i32 %6, 1
  store i32 %9, ptr %5, align 8, !alias.scope !249
  %10 = getelementptr inbounds nuw i8, ptr %1, i64 4
  %11 = load i32, ptr %10, align 4
  tail call void @enlargeStringInfo(ptr noundef nonnull %0, i32 noundef 4) #8
  tail call void @llvm.experimental.noalias.scope.decl(metadata !252)
  %12 = tail call i32 @llvm.bswap.i32(i32 %11)
  %13 = load ptr, ptr %0, align 8, !alias.scope !252
  %14 = load i32, ptr %5, align 8, !alias.scope !252
  %15 = sext i32 %14 to i64
  %16 = getelementptr inbounds i8, ptr %13, i64 %15
  store i32 %12, ptr %16, align 1, !noalias !252
  %17 = add i32 %14, 4
  store i32 %17, ptr %5, align 8, !alias.scope !252
  tail call void @enlargeStringInfo(ptr noundef nonnull %0, i32 noundef 1) #8
  tail call void @llvm.experimental.noalias.scope.decl(metadata !255)
  %18 = load ptr, ptr %0, align 8, !alias.scope !255
  %19 = load i32, ptr %5, align 8, !alias.scope !255
  %20 = sext i32 %19 to i64
  %21 = getelementptr inbounds i8, ptr %18, i64 %20
  store i8 0, ptr %21, align 1, !noalias !255
  %22 = add i32 %19, 1
  store i32 %22, ptr %5, align 8, !alias.scope !255
  tail call void @enlargeStringInfo(ptr noundef nonnull %0, i32 noundef 8) #8
  tail call void @llvm.experimental.noalias.scope.decl(metadata !258)
  %23 = tail call i64 @llvm.bswap.i64(i64 %2)
  %24 = load ptr, ptr %0, align 8, !alias.scope !258
  %25 = load i32, ptr %5, align 8, !alias.scope !258
  %26 = sext i32 %25 to i64
  %27 = getelementptr inbounds i8, ptr %24, i64 %26
  store i64 %23, ptr %27, align 1, !noalias !258
  %28 = add i32 %25, 8
  store i32 %28, ptr %5, align 8, !alias.scope !258
  %29 = getelementptr inbounds nuw i8, ptr %1, i64 40
  %30 = load i64, ptr %29, align 8
  tail call void @enlargeStringInfo(ptr noundef nonnull %0, i32 noundef 8) #8
  tail call void @llvm.experimental.noalias.scope.decl(metadata !261)
  %31 = tail call i64 @llvm.bswap.i64(i64 %30)
  %32 = load ptr, ptr %0, align 8, !alias.scope !261
  %33 = load i32, ptr %5, align 8, !alias.scope !261
  %34 = sext i32 %33 to i64
  %35 = getelementptr inbounds i8, ptr %32, i64 %34
  store i64 %31, ptr %35, align 1, !noalias !261
  %36 = add i32 %33, 8
  store i32 %36, ptr %5, align 8, !alias.scope !261
  %37 = getelementptr inbounds nuw i8, ptr %1, i64 80
  %38 = load i64, ptr %37, align 8
  tail call void @enlargeStringInfo(ptr noundef nonnull %0, i32 noundef 8) #8
  tail call void @llvm.experimental.noalias.scope.decl(metadata !264)
  %39 = tail call i64 @llvm.bswap.i64(i64 %38)
  %40 = load ptr, ptr %0, align 8, !alias.scope !264
  %41 = load i32, ptr %5, align 8, !alias.scope !264
  %42 = sext i32 %41 to i64
  %43 = getelementptr inbounds i8, ptr %40, i64 %42
  store i64 %39, ptr %43, align 1, !noalias !264
  %44 = add i32 %41, 8
  store i32 %44, ptr %5, align 8, !alias.scope !264
  ret void
}